target datalayout = "e-m:e-p270:32:32-p271:32:32-p272:64:64-i64:64-i128:128-f80:128-n8:16:32:64-S128"
target triple = "x86_64-pc-linux-gnu"

; Function Attrs: nounwind uwtable
define internal i32 @luaB_auxwrap(ptr noundef %0) #0 {
  %2 = alloca i32, align 4
  %3 = alloca ptr, align 8
  %4 = alloca ptr, align 8
  %5 = alloca i32, align 4
  %6 = alloca i32, align 4
  %7 = alloca i32, align 4
  store ptr %0, ptr %3, align 8, !tbaa !4
  call void @llvm.lifetime.start.p0(i64 8, ptr %4) #4
  %8 = load ptr, ptr %3, align 8, !tbaa !4
  %9 = call ptr @lua_tothread(ptr noundef %8, i32 noundef -1001001)
  store ptr %9, ptr %4, align 8, !tbaa !4
  call void @llvm.lifetime.start.p0(i64 4, ptr %5) #4
  %10 = load ptr, ptr %3, align 8, !tbaa !4
  %11 = load ptr, ptr %4, align 8, !tbaa !4
  %12 = load ptr, ptr %3, align 8, !tbaa !4
  %13 = call i32 @lua_gettop(ptr noundef %12)
  %14 = call i32 @auxresume(ptr noundef %10, ptr noundef %11, i32 noundef %13)
  store i32 %14, ptr %5, align 4, !tbaa !9
  %15 = load i32, ptr %5, align 4, !tbaa !9
  %16 = icmp slt i32 %15, 0
  %17 = zext i1 %16 to i32
  %18 = icmp ne i32 %17, 0
  %19 = zext i1 %18 to i32
  %20 = sext i32 %19 to i64
  %21 = call i64 @llvm.expect.i64(i64 %20, i64 0)
  %22 = icmp ne i64 %21, 0
  br i1 %22, label %23, label %51

23:                                               ; preds = %1
  call void @llvm.lifetime.start.p0(i64 4, ptr %6) #4
  %24 = load ptr, ptr %4, align 8, !tbaa !4
  %25 = call i32 @lua_status(ptr noundef %24)
  store i32 %25, ptr %6, align 4, !tbaa !9
  %26 = load i32, ptr %6, align 4, !tbaa !9
  %27 = icmp ne i32 %26, 0
  br i1 %27, label %28, label %37

28:                                               ; preds = %23
  %29 = load i32, ptr %6, align 4, !tbaa !9
  %30 = icmp ne i32 %29, 1
  br i1 %30, label %31, label %37

31:                                               ; preds = %28
  %32 = load ptr, ptr %4, align 8, !tbaa !4
  %33 = load ptr, ptr %3, align 8, !tbaa !4
  %34 = call i32 @lua_closethread(ptr noundef %32, ptr noundef %33)
  store i32 %34, ptr %6, align 4, !tbaa !9
  %35 = load ptr, ptr %4, align 8, !tbaa !4
  %36 = load ptr, ptr %3, align 8, !tbaa !4
  call void @lua_xmove(ptr noundef %35, ptr noundef %36, i32 noundef 1)
  br label %37

37:                                               ; preds = %31, %28, %23
  %38 = load i32, ptr %6, align 4, !tbaa !9
  %39 = icmp ne i32 %38, 4
  br i1 %39, label %40, label %48

40:                                               ; preds = %37
  %41 = load ptr, ptr %3, align 8, !tbaa !4
  %42 = call i32 @lua_type(ptr noundef %41, i32 noundef -1)
  %43 = icmp eq i32 %42, 4
  br i1 %43, label %44, label %48

44:                                               ; preds = %40
  %45 = load ptr, ptr %3, align 8, !tbaa !4
  call void @luaL_where(ptr noundef %45, i32 noundef 1)
  %46 = load ptr, ptr %3, align 8, !tbaa !4
  call void @lua_rotate(ptr noundef %46, i32 noundef -2, i32 noundef 1)
  %47 = load ptr, ptr %3, align 8, !tbaa !4
  call void @lua_concat(ptr noundef %47, i32 noundef 2)
  br label %48

48:                                               ; preds = %44, %40, %37
  %49 = load ptr, ptr %3, align 8, !tbaa !4
  %50 = call i32 @lua_error(ptr noundef %49)
  store i32 %50, ptr %2, align 4
  store i32 1, ptr %7, align 4
  call void @llvm.lifetime.end.p0(i64 4, ptr %6) #4
  br label %53

51:                                               ; preds = %1
  %52 = load i32, ptr %5, align 4, !tbaa !9
  store i32 %52, ptr %2, align 4
  store i32 1, ptr %7, align 4
  br label %53

53:                                               ; preds = %51, %48
  call void @llvm.lifetime.end.p0(i64 4, ptr %5) #4
  call void @llvm.lifetime.end.p0(i64 8, ptr %4) #4
  %54 = load i32, ptr %2, align 4
  ret i32 %54
}