; Function Attrs: nounwind uwtable
define internal i32 @luaB_auxwrap(ptr noundef %0) #0 {
  %2 = tail call ptr @lua_tothread(ptr noundef %0, i32 noundef -1001001) #3
  %3 = tail call i32 @lua_gettop(ptr noundef %0) #3
  %4 = tail call fastcc i32 @auxresume(ptr noundef %0, ptr noundef %2, i32 noundef %3)
  %5 = icmp slt i32 %4, 0
  br i1 %5, label %6, label %16, !prof !4

6:                                                ; preds = %1
  %7 = tail call i32 @lua_status(ptr noundef %2) #3
  %or.cond = icmp ugt i32 %7, 1
  br i1 %or.cond, label %8, label %.critedge

8:                                                ; preds = %6
  %9 = tail call i32 @lua_closethread(ptr noundef %2, ptr noundef %0) #3
  tail call void @lua_xmove(ptr noundef %2, ptr noundef %0, i32 noundef 1) #3
  %10 = icmp eq i32 %9, 4
  br i1 %10, label %14, label %.critedge

.critedge:                                        ; preds = %6, %8
  %11 = tail call i32 @lua_type(ptr noundef %0, i32 noundef -1) #3
  %12 = icmp eq i32 %11, 4
  br i1 %12, label %13, label %14

13:                                               ; preds = %.critedge
  tail call void @luaL_where(ptr noundef %0, i32 noundef 1) #3
  tail call void @lua_rotate(ptr noundef %0, i32 noundef -2, i32 noundef 1) #3
  tail call void @lua_concat(ptr noundef %0, i32 noundef 2) #3
  br label %14

14:                                               ; preds = %13, %.critedge, %8
  %15 = tail call i32 @lua_error(ptr noundef %0) #3
  br label %16

16:                                               ; preds = %1, %14
  %.020 = phi i32 [ %15, %14 ], [ %4, %1 ]
  ret i32 %.020
}